target datalayout = "e-m:e-p270:32:32-p271:32:32-p272:64:64-i64:64-i128:128-f80:128-n8:16:32:64-S128"
target triple = "x86_64-pc-linux-gnu"

%struct.Qureg = type { i32, i32, i32, i64, i64, i32, i32, %struct.ComplexArray, %struct.ComplexArray, %struct.ComplexArray, ptr, ptr, ptr, ptr, ptr, ptr }
%struct.ComplexArray = type { ptr, ptr }

; Function Attrs: nounwind uwtable
define void @densmatr_mixDamping(ptr noundef byval(%struct.Qureg) align 8 %0, i32 noundef %1, double noundef %2) #0 {
  %4 = alloca i32, align 4
  %5 = alloca double, align 8
  store i32 %1, ptr %4, align 4, !tbaa !4
  store double %2, ptr %5, align 8, !tbaa !8
  %6 = load double, ptr %5, align 8, !tbaa !8
  %7 = fcmp oeq double %6, 0.000000e+00
  br i1 %7, label %8, label %9

8:                                                ; preds = %3
  br label %12

9:                                                ; preds = %3
  %10 = load i32, ptr %4, align 4, !tbaa !4
  %11 = load double, ptr %5, align 8, !tbaa !8
  call void @densmatr_mixDampingLocal(ptr noundef byval(%struct.Qureg) align 8 %0, i32 noundef %10, double noundef %11)
  br label %12

12:                                               ; preds = %9, %8
  ret void
}